; Function Attrs: nounwind uwtable
define zeroext range(i8 0, 2) i8 @l_Lean_Meta_SimpTheorem_isRfl___lambda__1(ptr noundef %0, ptr noundef %1, ptr readnone captures(none) %2) local_unnamed_addr #1 {
  %4 = getelementptr inbounds nuw i8, ptr %0, i64 40
  %5 = load ptr, ptr %4, align 8, !tbaa !9
  %6 = ptrtoint ptr %5 to i64
  %7 = and i64 %6, 1
  %.not = icmp eq i64 %7, 0
  br i1 %.not, label %8, label %lean_inc.exit26

8:                                                ; preds = %3
  %.val.i = load i32, ptr %5, align 4, !tbaa !4
  %9 = icmp sgt i32 %.val.i, 0
  br i1 %9, label %10, label %12, !prof !11

10:                                               ; preds = %8
  %11 = add nuw i32 %.val.i, 1
  store i32 %11, ptr %5, align 4, !tbaa !4
  br label %lean_inc.exit26

12:                                               ; preds = %8
  %.not.i45 = icmp eq i32 %.val.i, 0
  br i1 %.not.i45, label %lean_inc.exit26, label %13

13:                                               ; preds = %12
  tail call void @lean_inc_ref_cold(ptr noundef nonnull %5) #6
  br label %lean_inc.exit26

lean_inc.exit26:                                  ; preds = %13, %12, %10, %3
  %14 = ptrtoint ptr %0 to i64
  %15 = and i64 %14, 1
  %.not61 = icmp eq i64 %15, 0
  br i1 %.not61, label %16, label %lean_dec.exit32

16:                                               ; preds = %lean_inc.exit26
  %17 = load i32, ptr %0, align 4, !tbaa !4
  %18 = icmp sgt i32 %17, 1
  br i1 %18, label %19, label %21, !prof !11

19:                                               ; preds = %16
  %20 = add nsw i32 %17, -1
  store i32 %20, ptr %0, align 4, !tbaa !4
  br label %lean_dec.exit32

21:                                               ; preds = %16
  %.not.i = icmp eq i32 %17, 0
  br i1 %.not.i, label %lean_dec.exit32, label %22

22:                                               ; preds = %21
  tail call void @lean_dec_ref_cold(ptr noundef nonnull %0) #6
  br label %lean_dec.exit32

lean_dec.exit32:                                  ; preds = %22, %21, %19, %lean_inc.exit26
  br i1 %.not, label %lean_obj_tag.exit, label %lean_obj_tag.exit.thread

lean_obj_tag.exit:                                ; preds = %lean_dec.exit32
  %23 = getelementptr i8, ptr %5, i64 4
  %.val.i47 = load i32, ptr %23, align 4
  %24 = icmp ult i32 %.val.i47, 16777216
  br i1 %24, label %27, label %83

lean_obj_tag.exit.thread:                         ; preds = %lean_dec.exit32
  %25 = and i64 %6, 8589934590
  %26 = icmp eq i64 %25, 0
  br i1 %26, label %27, label %lean_dec.exit27

27:                                               ; preds = %lean_obj_tag.exit.thread, %lean_obj_tag.exit
  %28 = getelementptr inbounds nuw i8, ptr %5, i64 8
  %29 = load ptr, ptr %28, align 8, !tbaa !9
  %30 = ptrtoint ptr %29 to i64
  %31 = and i64 %30, 1
  %.not63 = icmp eq i64 %31, 0
  br i1 %.not63, label %32, label %lean_inc.exit25

32:                                               ; preds = %27
  %.val.i48 = load i32, ptr %29, align 4, !tbaa !4
  %33 = icmp sgt i32 %.val.i48, 0
  br i1 %33, label %34, label %36, !prof !11

34:                                               ; preds = %32
  %35 = add nuw i32 %.val.i48, 1
  store i32 %35, ptr %29, align 4, !tbaa !4
  br label %lean_inc.exit25

36:                                               ; preds = %32
  %.not.i49 = icmp eq i32 %.val.i48, 0
  br i1 %.not.i49, label %lean_inc.exit25, label %37

37:                                               ; preds = %36
  tail call void @lean_inc_ref_cold(ptr noundef nonnull %29) #6
  br label %lean_inc.exit25

lean_inc.exit25:                                  ; preds = %37, %36, %34, %27
  br i1 %.not, label %38, label %lean_dec.exit31

38:                                               ; preds = %lean_inc.exit25
  %39 = load i32, ptr %5, align 4, !tbaa !4
  %40 = icmp sgt i32 %39, 1
  br i1 %40, label %41, label %43, !prof !11

41:                                               ; preds = %38
  %42 = add nsw i32 %39, -1
  store i32 %42, ptr %5, align 4, !tbaa !4
  br label %lean_dec.exit31

43:                                               ; preds = %38
  %.not.i33 = icmp eq i32 %39, 0
  br i1 %.not.i33, label %lean_dec.exit31, label %44

44:                                               ; preds = %43
  tail call void @lean_dec_ref_cold(ptr noundef nonnull %5) #6
  br label %lean_dec.exit31

lean_dec.exit31:                                  ; preds = %44, %43, %41, %lean_inc.exit25
  %45 = tail call ptr @l_Lean_Environment_findAsync_x3f(ptr noundef %1, ptr noundef %29, i8 noundef zeroext 0) #6
  %46 = ptrtoint ptr %45 to i64
  %47 = and i64 %46, 1
  %.not.i51 = icmp eq i64 %47, 0
  br i1 %.not.i51, label %51, label %48

48:                                               ; preds = %lean_dec.exit31
  %49 = lshr i64 %46, 1
  %50 = trunc i64 %49 to i32
  br label %lean_obj_tag.exit54

51:                                               ; preds = %lean_dec.exit31
  %52 = getelementptr i8, ptr %45, i64 4
  %.val.i53 = load i32, ptr %52, align 4
  %53 = lshr i32 %.val.i53, 24
  br label %lean_obj_tag.exit54

lean_obj_tag.exit54:                              ; preds = %48, %51
  %.0.i52 = phi i32 [ %50, %48 ], [ %53, %51 ]
  %54 = icmp eq i32 %.0.i52, 0
  br i1 %54, label %lean_dec.exit, label %55

55:                                               ; preds = %lean_obj_tag.exit54
  %56 = getelementptr inbounds nuw i8, ptr %45, i64 8
  %57 = load ptr, ptr %56, align 8, !tbaa !9
  %58 = ptrtoint ptr %57 to i64
  %59 = and i64 %58, 1
  %.not64 = icmp eq i64 %59, 0
  br i1 %.not64, label %60, label %lean_inc.exit

60:                                               ; preds = %55
  %.val.i55 = load i32, ptr %57, align 4, !tbaa !4
  %61 = icmp sgt i32 %.val.i55, 0
  br i1 %61, label %62, label %64, !prof !11

62:                                               ; preds = %60
  %63 = add nuw i32 %.val.i55, 1
  store i32 %63, ptr %57, align 4, !tbaa !4
  br label %lean_inc.exit

64:                                               ; preds = %60
  %.not.i56 = icmp eq i32 %.val.i55, 0
  br i1 %.not.i56, label %lean_inc.exit, label %65

65:                                               ; preds = %64
  tail call void @lean_inc_ref_cold(ptr noundef nonnull %57) #6
  br label %lean_inc.exit

lean_inc.exit:                                    ; preds = %65, %64, %62, %55
  br i1 %.not.i51, label %66, label %lean_dec.exit30

66:                                               ; preds = %lean_inc.exit
  %67 = load i32, ptr %45, align 4, !tbaa !4
  %68 = icmp sgt i32 %67, 1
  br i1 %68, label %69, label %71, !prof !11

69:                                               ; preds = %66
  %70 = add nsw i32 %67, -1
  store i32 %70, ptr %45, align 4, !tbaa !4
  br label %lean_dec.exit30

71:                                               ; preds = %66
  %.not.i35 = icmp eq i32 %67, 0
  br i1 %.not.i35, label %lean_dec.exit30, label %72

72:                                               ; preds = %71
  tail call void @lean_dec_ref_cold(ptr noundef nonnull %45) #6
  br label %lean_dec.exit30

lean_dec.exit30:                                  ; preds = %72, %71, %69, %lean_inc.exit
  %73 = getelementptr inbounds nuw i8, ptr %57, i64 32
  %74 = load i8, ptr %73, align 1, !tbaa !14
  br i1 %.not64, label %75, label %lean_dec.exit29

75:                                               ; preds = %lean_dec.exit30
  %76 = load i32, ptr %57, align 4, !tbaa !4
  %77 = icmp sgt i32 %76, 1
  br i1 %77, label %78, label %80, !prof !11

78:                                               ; preds = %75
  %79 = add nsw i32 %76, -1
  store i32 %79, ptr %57, align 4, !tbaa !4
  br label %lean_dec.exit29

80:                                               ; preds = %75
  %.not.i37 = icmp eq i32 %76, 0
  br i1 %.not.i37, label %lean_dec.exit29, label %81

81:                                               ; preds = %80
  tail call void @lean_dec_ref_cold(ptr noundef nonnull %57) #6
  br label %lean_dec.exit29

lean_dec.exit29:                                  ; preds = %81, %80, %78, %lean_dec.exit30
  %82 = icmp eq i8 %74, 1
  %spec.select = zext i1 %82 to i8
  br label %lean_dec.exit

83:                                               ; preds = %lean_obj_tag.exit
  %84 = load i32, ptr %5, align 4, !tbaa !4
  %85 = icmp sgt i32 %84, 1
  br i1 %85, label %86, label %88, !prof !11

86:                                               ; preds = %83
  %87 = add nsw i32 %84, -1
  store i32 %87, ptr %5, align 4, !tbaa !4
  br label %lean_dec.exit27

88:                                               ; preds = %83
  %.not.i41 = icmp eq i32 %84, 0
  br i1 %.not.i41, label %lean_dec.exit27, label %89

89:                                               ; preds = %88
  tail call void @lean_dec_ref_cold(ptr noundef nonnull %5) #6
  br label %lean_dec.exit27

lean_dec.exit27:                                  ; preds = %lean_obj_tag.exit.thread, %89, %88, %86
  %90 = ptrtoint ptr %1 to i64
  %91 = and i64 %90, 1
  %.not62 = icmp eq i64 %91, 0
  br i1 %.not62, label %92, label %lean_dec.exit

92:                                               ; preds = %lean_dec.exit27
  %93 = load i32, ptr %1, align 4, !tbaa !4
  %94 = icmp sgt i32 %93, 1
  br i1 %94, label %95, label %97, !prof !11

95:                                               ; preds = %92
  %96 = add nsw i32 %93, -1
  store i32 %96, ptr %1, align 4, !tbaa !4
  br label %lean_dec.exit

97:                                               ; preds = %92
  %.not.i43 = icmp eq i32 %93, 0
  br i1 %.not.i43, label %lean_dec.exit, label %98

98:                                               ; preds = %97
  tail call void @lean_dec_ref_cold(ptr noundef nonnull %1) #6
  br label %lean_dec.exit

lean_dec.exit:                                    ; preds = %lean_dec.exit29, %lean_dec.exit27, %95, %97, %98, %lean_obj_tag.exit54
  %.2 = phi i8 [ 0, %lean_obj_tag.exit54 ], [ 1, %98 ], [ 1, %97 ], [ 1, %95 ], [ 1, %lean_dec.exit27 ], [ %spec.select, %lean_dec.exit29 ]
  ret i8 %.2
}